; Function Attrs: mustprogress nofree norecurse nosync nounwind willreturn memory(readwrite, inaccessiblemem: none) uwtable
define dso_local void @uv_ref(ptr noundef captures(none) %0) local_unnamed_addr #13 {
  %2 = getelementptr inbounds nuw i8, ptr %0, i64 88
  %3 = load i32, ptr %2, align 8, !tbaa !40
  %4 = and i32 %3, 8
  %.not = icmp eq i32 %4, 0
  br i1 %.not, label %5, label %14

5:                                                ; preds = %1
  %6 = or disjoint i32 %3, 8
  store i32 %6, ptr %2, align 8, !tbaa !40
  %7 = and i32 %3, 5
  %or.cond.not = icmp eq i32 %7, 4
  br i1 %or.cond.not, label %8, label %14

8:                                                ; preds = %5
  %9 = getelementptr inbounds nuw i8, ptr %0, i64 8
  %10 = load ptr, ptr %9, align 8, !tbaa !47
  %11 = getelementptr inbounds nuw i8, ptr %10, i64 8
  %12 = load i32, ptr %11, align 8, !tbaa !48
  %13 = add i32 %12, 1
  store i32 %13, ptr %11, align 8, !tbaa !48
  br label %14

14:                                               ; preds = %8, %5, %1
  ret void
}